(lp0
S''
p1
aS'searchChoice'
p2
aS'childAttempt'
p3
aS'dropChoice'
p4
aS'pass'
p5
aS'Confidencemedium'
p6
aS'Laura'
p7
aS'partnerSearch'
p8
aS'Confidencemedium_Creativemedium'
p9
aS'hobbySearch'
p10
aS'SocialHasNeed'
p11
aS'Tad'
p12
aS'MentalExerciseHasNeed'
p13
aS'jobSearch'
p14
aS'Empathylow'
p15
aS'MentalExerciseHasNeed_RelaxHasNeed'
p16
aS'SportPlayer'
p17
aS'Analyticalmedium_Empathylow'
p18
aS'Siegfried'
p19
aS'MoneyHasNeed'
p20
aS'Manuel'
p21
aS'Creativemedium'
p22
aS'Sofia'
p23
aS'CreativityHasNeed_MoneyHasNeed'
p24
aS'Creativemedium_Physicalhigh'
p25
aS'FireFighter'
p26
aS'CreativityHasNeed_MentalExerciseHasNeed_MoneyHasNeed'
p27
aS'Fencing'
p28
aS'Yoga'
p29
aS'Fencing_Yoga'
p30
aS'Football'
p31
aS'Doctor'
p32
aS'CreativityHasNeed'
p33
aS'Programmer'
p34
aS'Carry'
p35
aS'Confidencemedium_Empathylow'
p36
aS'Volunteering'
p37
aS'Confidencemedium_Creativemedium_Empathylow'
p38
aS'CreativityHasNeed_MentalExerciseHasNeed'
p39
aS'Mohamed'
p40
aS'RelaxHasNeed_SocialHasNeed'
p41
aS'Fatima'
p42
aS'Fatima_Mohamed'
p43
aS'Laurence'
p44
aS'Jen_Laurence'
p45
aS'Santiago'
p46
aS'Analyticalhigh_Creativemedium'
p47
aS'Artist'
p48
aS'RelaxHasNeed'
p49
aS'WaitStaff'
p50
aS'CreativityHasNeed_MentalExerciseHasNeed_RelaxHasNeed'
p51
aS'Matthias'
p52
aS'Creativemedium_Empathylow'
p53
aS'Jen_Matthias'
p54
aS'Professor'
p55
aS'Boxing'
p56
aS'Empathylow_Physicalhigh'
p57
aS'Nurse'
p58
aS'MoneyHasNeed_SocialHasNeed'
p59
aS'Analyticalmedium'
p60
aS'Analyticalmedium_Confidencemedium'
p61
aS'Analyticalmedium_Confidencemedium_Physicalhigh'
p62
aS'Analyticalmedium_Confidencemedium_Empathylow_Physicalhigh'
p63
aS'Analyticalmedium_Confidencemedium_Creativemedium_Empathylow_Physicalhigh'
p64
aS'Hockey'
p65
aS'Jen'
p66
aS'Physicalhigh'
p67
aS'Confidencemedium_Physicalhigh'
p68
aS'Confidencemedium_Creativemedium_Physicalhigh'
p69
aS'MentalExerciseHasNeed_MoneyHasNeed_SocialHasNeed'
p70
aS'June'
p71
aS'MoneyHasNeed_RelaxHasNeed'
p72
aS'Dating'
p73
aS'CreativityHasNeed_MoneyHasNeed_RelaxHasNeed'
p74
aS'June_Kim'
p75
aS'Confidencehigh_Empathylow'
p76
aS'Bin'
p77
aS'MoneyHasNeed_RelaxHasNeed_SocialHasNeed'
p78
aS'Analyticalmedium_Creativemedium'
p79
aS'Analyticalmedium_Creativemedium_Empathylow'
p80
aS'Rene'
p81
aS'Analyticalmedium_Physicalhigh'
p82
aS'Analyticalmedium_Empathylow_Physicalhigh'
p83
aS'MentalExerciseHasNeed_RelaxHasNeed_SocialHasNeed'
p84
aS'CreativityHasNeed_SocialHasNeed'
p85
aS'Creativemedium_Empathylow_Physicalhigh'
p86
aS'Carry_Laura'
p87
aS'Carry_June_Laura'
p88
aS'MentalExerciseHasNeed_MoneyHasNeed'
p89
aS'Painting'
p90
aS'CreativityHasNeed_MentalExerciseHasNeed_MoneyHasNeed_SocialHasNeed'
p91
aS'MentalExerciseHasNeed_SocialHasNeed'
p92
aS'Dancing'
p93
aS'Confidencehigh'
p94
aS'Confidencehigh_Physicalhigh'
p95
aS'BoardGames'
p96
aS'Bin_June'
p97
aS'Analyticalmedium_Confidencemedium_Creativemedium'
p98
aS'CreativityHasNeed_MentalExerciseHasNeed_SocialHasNeed'
p99
aS'DoctorNurse'
p100
aS'Tamara'
p101
aS'Rene_Tamara'
p102
aS'Fatima_Rene'
p103
aS'CreativityHasNeed_MentalExerciseHasNeed_RelaxHasNeed_SocialHasNeed'
p104
aS'Analyticalmedium_Creativemedium_Empathylow_Physicalhigh'
p105
aS'Acting'
p106
aS'MentalExerciseHasNeed_MoneyHasNeed_RelaxHasNeed_SocialHasNeed'
p107
aS'Analyticalmedium_Creativemedium_Physicalhigh'
p108
aS'Analyticalmedium_Confidencemedium_Creativemedium_Physicalhigh'
p109
aS'Tom'
p110
aS'Empathymedium'
p111
aS'Confidencemedium_Empathymedium'
p112
aS'FireFighter_Programmer'
p113
aS'Carry_Siegfried'
p114
aS'MentalExerciseHasNeed_MoneyHasNeed_RelaxHasNeed'
p115
aS'Analyticalmedium_Confidencemedium_Empathylow'
p116
aS'June_Laura'
p117
aS'Nurse_Programmer'
p118
aS'Programmer_SportPlayer'
p119
aS'CreativityHasNeed_RelaxHasNeed'
p120
aS'CreativityHasNeed_RelaxHasNeed_SocialHasNeed'
p121
aS'Analyticalmedium_Empathymedium'
p122
aS'Confidencemedium_Empathylow_Physicalhigh'
p123
aS'Confidencemedium_Creativemedium_Empathylow_Physicalhigh'
p124
aS'Teacher'
p125
aS'Teacher_WaitStaff'
p126
aS'CreativityHasNeed_MoneyHasNeed_SocialHasNeed'
p127
aS'Fatima_Santiago'
p128
aS'Carry_June'
p129
aS'Matthias_Tom'
p130
aS'Kim'
p131
aS'Kim_Matthias'
p132
aS'Doctor_Teacher'
p133
aS'Confidencemedium_Creativemedium_Empathymedium'
p134
aS'June_Siegfried'
p135
aS'Jen_June_Siegfried'
p136
aS'Bin_Jen_June'
p137
aS'Creativemedium_Empathymedium'
p138
aS'Analyticalmedium_Creativemedium_Empathymedium'
p139
aS'Nurse_WaitStaff'
p140
aS'Carry_Jen'
p141
aS'Santiago_Tad'
p142
aS'Bin_Kim'
p143
aS'Bin_Matthias'
p144
aS'Tad_Tamara'
p145
aS'Artist_Teacher'
p146
aS'June_Laurence'
p147
aS'BarHopping'
p148
aS'Fatima_Tamara'
p149
aS'CreativityHasNeed_MoneyHasNeed_RelaxHasNeed_SocialHasNeed'
p150
aS'Jen_Siegfried'
p151
aS'Analyticalmedium_Empathymedium_Physicalhigh'
p152
aS'Analyticalmedium_Creativemedium_Empathymedium_Physicalhigh'
p153
aS'Kim_Laura'
p154
aS'Nurse_Teacher'
p155
aS'Analyticalmedium_Confidencemedium_Creativemedium_Empathylow'
p156
aS'Manuel_Mohamed'
p157
aS'Mohamed_Rene'
p158
aS'June_Tom'
p159
aS'Manuel_Santiago'
p160
aS'NurseProgrammer'
p161
aS'Boxing_Painting'
p162
aS'Confidencehigh_Creativemedium'
p163
aS'Professor_Programmer'
p164
aS'Doctor_Professor'
p165
aS'FireFighter_SportPlayer'
p166
aS'Jen_Tom'
p167
aS'Carry_Laurence'
p168
aS'Analyticalhigh'
p169
aS'Analyticalhigh_Empathylow'
p170
aS'Laura_Tom'
p171
aS'Jen_Laura_Tom'
p172
aS'Laurence_Siegfried'
p173
aS'BarHopping_Dancing'
p174
aS'Acting_Hockey'
p175
aS'Acting_Yoga'
p176
aS'Carry_Matthias'
p177
aS'Fatima_Manuel'
p178
aS'Analyticalhigh_Confidencemedium_Physicalhigh'
p179
aS'Fencing_Volunteering'
p180
aS'Analyticalhigh_Confidencemedium_Creativemedium_Physicalhigh'
p181
aS'Kim_Tom'
p182
aS'Boxing_Football'
p183
aS'Empathymedium_Physicalhigh'
p184
aS'Doctor_Programmer'
p185
aS'Analyticalmedium_Confidencehigh_Creativemedium_Physicalhigh'
p186
aS'Analyticalmedium_Confidencehigh_Creativemedium_Empathylow_Physicalhigh'
p187
aS'Mohamed_Sofia'
p188
aS'Analyticalhigh_Physicalhigh'
p189
aS'Analyticalhigh_Creativemedium_Physicalhigh'
p190
aS'CreativityHasNeed_MentalExerciseHasNeed_MoneyHasNeed_RelaxHasNeed'
p191
aS'MohamedSofia'
p192
aS'Dating_Yoga'
p193
aS'Laura_Siegfried'
p194
aS'Acting_Dancing'
p195
aS'Analyticalmedium_Confidencemedium_Creativemedium_Empathymedium'
p196
aS'Analyticalmedium_Confidencemedium_Creativemedium_Empathymedium_Physicalhigh'
p197
aS'Hockey_Yoga'
p198
aS'Confidencemedium_Empathymedium_Physicalhigh'
p199
aS'Confidencemedium_Creativemedium_Empathymedium_Physicalhigh'
p200
aS'Bin_Laura'
p201
aS'Analyticalmedium_Confidencehigh'
p202
aS'Analyticalmedium_Confidencemedium_Empathymedium_Physicalhigh'
p203
aS'Analyticalhigh_Confidencemedium_Creativemedium'
p204
aS'Doctor_SportPlayer'
p205
aS'Professor_WaitStaff'
p206
aS'DoctorProgrammer'
p207
aS'FatimaManuel'
p208
aS'Nurse_SportPlayer'
p209
aS'Sofia_Tamara'
p210
aS'June_Matthias_Siegfried'
p211
aS'MohamedTad'
p212
aS'Rene_Tad'
p213
aS'Jen_Kim_Laurence'
p214
aS'Carry_Tom'
p215
aS'FireFighter_Nurse'
p216
aS'FireFighterWaitStaff'
p217
aS'Mohamed_Tamara'
p218
aS'Programmer_WaitStaff'
p219
aS'Bin_Carry'
p220
aS'FireFighter_WaitStaff'
p221
aS'SportPlayer_WaitStaff'
p222
aS'Doctor_WaitStaff'
p223
aS'Confidencehigh_Creativemedium_Physicalhigh'
p224
aS'Confidencehigh_Creativemedium_Empathylow_Physicalhigh'
p225
aS'Acting_Fencing'
p226
aS'Acting_BarHopping'
p227
aS'Confidencehigh_Creativemedium_Empathylow'
p228
aS'June_Laura_Tom'
p229
aS'Creativehigh'
p230
aS'Analyticalmedium_Creativehigh'
p231
aS'ManuelMohamed'
p232
aS'Acting_Dating'
p233
aS'BarHopping_Hockey'
p234
aS'Fatima_Tad'
p235
aS'Mohamed_Santiago'
p236
aS'BoardGames_Dancing'
p237
aS'Laurence_Matthias'
p238
aS'Kim_Laurence_Matthias'
p239
aS'Bin_Jen'
p240
aS'Bin_Jen_Kim'
p241
aS'Analyticalmedium_Confidencehigh_Physicalhigh'
p242
aS'Laurence_Tom'
p243
aS'Bin_Jen_Siegfried'
p244
aS'Bin_Jen_Matthias'
p245
aS'Carry_June_Tom'
p246
aS'June_Matthias'
p247
aS'FatimaTamara'
p248
aS'Analyticalmedium_Confidencehigh_Creativemedium_Empathylow'
p249
aS'BarHopping_Boxing'
p250
aS'Jen_June'
p251
aS'Dancing_Hockey'
p252
aS'Jen_Kim'
p253
aS'CreativityHasNeed_MentalExerciseHasNeed_MoneyHasNeed_RelaxHasNeed_SocialHasNeed'
p254
aS'Laura_Matthias'
p255
aS'Laura_Matthias_Siegfried'
p256
aS'Analyticalmedium_Confidencemedium_Empathymedium'
p257
aS'Santiago_Tamara'
p258
aS'Manuel_Tad'
p259
aS'Dating_Football'
p260
aS'Analyticallow_Empathylow_Physicalhigh'
p261
aS'FireFighterSportPlayer'
p262
aS'Acting_Boxing'
p263
aS'Analyticallow_Creativemedium'
p264
aS'Analyticallow_Creativemedium_Empathymedium'
p265
aS'BarHopping_Volunteering'
p266
aS'Analyticalmedium_Confidencemedium_Empathyhigh'
p267
aS'Acting_Football'
p268
aS'FatimaSofia'
p269
aS'Santiago_Sofia'
p270
aS'Manuel_Tamara'
p271
aS'Hockey_Painting'
p272
aS'BarHopping_Yoga'
p273
aS'Analyticalmedium_Confidencehigh_Empathylow'
p274
aS'Analyticalmedium_Confidencehigh_Empathylow_Physicalhigh'
p275
aS'Analyticalhigh_Confidencemedium_Empathylow_Physicalhigh'
p276
aS'Doctor_FireFighter'
p277
aS'Football_Painting'
p278
aS'Analyticallow_Creativemedium_Physicalhigh'
p279
aS'Carry_Laura_Laurence'
p280
aS'ArtistDoctor'
p281
aS'Artist_Nurse'
p282
aS'BoardGames_Dating'
p283
aS'Manuel_Sofia'
p284
aS'Carry_Siegfried_Tom'
p285
aS'Artist_Programmer'
p286
aS'Analyticalhigh_Creativemedium_Empathylow_Physicalhigh'
p287
aS'DoctorProfessor'
p288
aS'Laura_Laurence'
p289
aS'ArtistTeacher'
p290
aS'Creativehigh_Physicalhigh'
p291
aS'Artist_SportPlayer'
p292
aS'Jen_Laurence_Tom'
p293
aS'Sofia_Tad'
p294
aS'ArtistSportPlayer'
p295
aS'Analyticalhigh_Empathylow_Physicalhigh'
p296
aS'Analyticallow_Confidencemedium'
p297
aS'FireFighter_Teacher'
p298
aS'Professor_Teacher'
p299
aS'Rene_Santiago'
p300
aS'Bin_Siegfried'
p301
aS'ArtistSportPlayerTeacher'
p302
aS'Artist_Professor'
p303
aS'Artist_FireFighter'
p304
aS'Bin_Matthias_Siegfried'
p305
aS'TadTamara'
p306
aS'ArtistProgrammer'
p307
aS'Carry_Kim'
p308
aS'Carry_Kim_Laurence'
p309
aS'Carry_Kim_Laura'
p310
aS'Bin_Kim_Laura'
p311
aS'Dating_Hockey'
p312
aS'Confidencehigh_Empathylow_Physicalhigh'
p313
aS'FatimaTad'
p314
aS'Bin_June_Laura'
p315
aS'June_Kim_Laurence'
p316
aS'Analyticalmedium_Confidencehigh_Creativemedium'
p317
aS'SantiagoSofia'
p318
aS'Fencing_Hockey'
p319
aS'BoardGames_Volunteering'
p320
aS'Boxing_Dating'
p321
aS'Jen_Matthias_Siegfried'
p322
aS'Analyticalhigh_Creativemedium_Empathymedium'
p323
aS'Dancing_Painting'
p324
aS'Bin_Jen_Laura'
p325
aS'ManuelTad'
p326
aS'ProfessorSportPlayer'
p327
aS'Kim_Siegfried'
p328
aS'Analyticalhigh_Confidencemedium'
p329
aS'Empathyhigh_Physicalhigh'
p330
aS'Carry_Laura_Tom'
p331
aS'Dancing_Dating'
p332
aS'Dating_Painting'
p333
aS'Creativehigh_Empathylow_Physicalhigh'
p334
aS'Creativehigh_Empathylow'
p335
aS'DoctorTeacher'
p336
aS'Analyticallow'
p337
aS'Analyticallow_Empathylow'
p338
aS'Kim_Laurence'
p339
aS'Siegfried_Tom'
p340
aS'FireFighter_Professor'
p341
aS'Carry_Matthias_Tom'
p342
aS'ManuelTamara'
p343
aS'SantiagoTad'
p344
aS'BoardGames_Hockey'
p345
aS'BoardGames_Yoga'
p346
aS'Kim_Matthias_Tom'
p347
aS'Jen_Laura'
p348
aS'Bin_Tom'
p349
aS'Bin_Laurence'
p350
aS'Mohamed_Tad'
p351
aS'MohamedRene'
p352
aS'Fencing_Football'
p353
aS'BarHopping_Football'
p354
aS'Rene_Sofia'
p355
aS'Professor_SportPlayer'
p356
aS'Carry_Jen_Laurence'
p357
aS'Analyticallow_Confidencehigh_Creativemedium_Empathylow'
p358
aS'Analyticallow_Confidencehigh_Creativemedium_Empathylow_Physicalhigh'
p359
aS'Analyticalhigh_Confidencemedium_Empathylow'
p360
aS'Painting_Yoga'
p361
aS'BarHopping_Dating_Volunteering'
p362
aS'Artist_Doctor'
p363
aS'NurseSportPlayer'
p364
aS'Matthias_Siegfried'
p365
aS'FatimaSantiago'
p366
aS'Dating_Volunteering'
p367
aS'Confidencehigh_Empathymedium_Physicalhigh'
p368
aS'Confidencehigh_Creativemedium_Empathymedium_Physicalhigh'
p369
aS'Analyticalmedium_Confidencehigh_Creativemedium_Empathymedium_Physicalhigh'
p370
aS'BarHopping_BoardGames'
p371
aS'Bin_Laura_Tom'
p372
aS'Dancing_Fencing_Hockey'
p373
aS'Analyticallow_Confidencemedium_Empathylow'
p374
aS'Analyticallow_Confidencemedium_Empathylow_Physicalhigh'
p375
aS'June_Laurence_Tom'
p376
aS'Jen_Laurence_Siegfried'
p377
aS'Manuel_Rene'
p378
aS'Fencing_Painting'
p379
aS'Boxing_Hockey'
p380
aS'SofiaTad'
p381
aS'Bin_Laura_Matthias'
p382
aS'Carry_Laurence_Tom'
p383
aS'Jen_Laura_Matthias'
p384
aS'Jen_Kim_Laura'
p385
aS'Analyticalhigh_Confidencemedium_Creativemedium_Empathylow'
p386
aS'Dancing_Fencing'
p387
aS'SportPlayerWaitStaff'
p388
aS'June_Kim_Laura'
p389
aS'ProgrammerTeacher'
p390
aS'DoctorProgrammerTeacher'
p391
aS'Acting_Painting'
p392
aS'Carry_Jen_Kim'
p393
aS'Artist_WaitStaff'
p394
aS'Carry_Jen_Siegfried'
p395
aS'SantiagoTamara'
p396
aS'MohamedSantiagoTamara'
p397
aS'Jen_June_Kim'
p398
aS'MohamedSantiago'
p399
aS'Creativemedium_Empathymedium_Physicalhigh'
p400
aS'BarHopping_Painting'
p401
aS'Dancing_Volunteering'
p402
aS'MohamedTamara'
p403
aS'Bin_June_Siegfried'
p404
aS'Fatima_Sofia'
p405
aS'June_Kim_Siegfried'
p406
aS'Nurse_Professor'
p407
aS'Kim_Laurence_Siegfried'
p408
aS'Analyticalhigh_Confidencemedium_Creativemedium_Empathylow_Physicalhigh'
p409
aS'Football_Volunteering'
p410
aS'Carry_Kim_Tom'
p411
aS'BarHopping_Boxing_Dating'
p412
aS'Carry_Kim_Matthias'
p413
aS'Acting_BoardGames'
p414
aS'ManuelSofia'
p415
aS'Dancing_Yoga'
p416
aS'Confidencehigh_Empathymedium'
p417
aS'Boxing_Yoga'
p418
aS'Confidencehigh_Creativemedium_Empathymedium'
p419
aS'ProgrammerSportPlayer'
p420
aS'Bin_Matthias_Tom'
p421
aS'Painting_Volunteering'
p422
aS'Bin_Laura_Laurence'
p423
aS'Carry_Laura_Siegfried'
p424
aS'Creativehigh_Empathymedium'
p425
aS'SportPlayer_Teacher'
p426
aS'Boxing_Fencing'
p427
aS'ArtistProfessor'
p428
aS'Carry_Jen_Matthias'
p429
aS'Bin_June_Laurence'
p430
aS'Jen_June_Tom'
p431
aS'Carry_Laurence_Matthias'
p432
aS'Jen_Laura_Siegfried'
p433
aS'BarHopping_Fencing'
p434
aS'Boxing_Dancing'
p435
aS'Boxing_Dancing_Yoga'
p436
aS'Programmer_Teacher'
p437
aS'Analyticalhigh_Empathyhigh_Physicalhigh'
p438
aS'Dating_Fencing'
p439
aS'June_Laura_Matthias'
p440
aS'Hockey_Volunteering'
p441
aS'Volunteering_Yoga'
p442
aS'Laura_Laurence_Matthias'
p443
aS'BoardGames_Fencing'
p444
aS'NurseTeacher'
p445
aS'Football_Hockey'
p446
aS'BoardGames_Football'
p447
aS'June_Kim_Matthias'
p448
aS'Bin_Laurence_Tom'
p449
aS'Laura_Laurence_Tom'
p450
aS'Confidencemedium_Empathyhigh'
p451
aS'ManuelSantiago'
p452
aS'June_Kim_Tom'
p453
aS'Jen_Laurence_Matthias'
p454
aS'ProfessorTeacher'
p455
aS'Doctor_Nurse'
p456
aS'DoctorSportPlayer'
p457
aS'Boxing_Fencing_Painting'
p458
aS'BarHopping_Dating'
p459
aS'Bin_Carry_Laura'
p460
aS'Analyticalmedium_Confidencehigh_Empathymedium'
p461
aS'Creativelow'
p462
aS'Analyticalhigh_Creativelow'
p463
aS'Analyticalhigh_Creativelow_Physicalmedium'
p464
aS'Analyticalhigh_Confidencelow_Creativelow_Physicalmedium'
p465
aS'Physicalmedium'
p466
aS'HelpTheWorldHasNeed'
p467
aS'HelpTheWorldHasNeed_SocialHasNeed'
p468
aS'HelpTheWorldHasNeed_RelaxHasNeed_SocialHasNeed'
p469
aS'ExerciseHasNeed_HelpTheWorldHasNeed_RelaxHasNeed_SocialHasNeed'
p470
aS'Confidencelow'
p471
aS'Confidencelow_Creativelow'
p472
aS'ExerciseHasNeed_MoneyHasNeed'
p473
aS'Analyticalhigh_Confidencelow'
p474
aS'Analyticalhigh_Confidencelow_Physicalhigh'
p475
aS'ExerciseHasNeed_RelaxHasNeed'
p476
aS'HelpTheWorldHasNeed_MoneyHasNeed_RelaxHasNeed_SocialHasNeed'
p477
aS'Analyticalhigh_Creativelow_Empathymedium'
p478
aS'ExerciseHasNeed'
p479
aS'ExerciseHasNeed_HelpTheWorldHasNeed_RelaxHasNeed'
p480
aS'ExerciseHasNeed_MoneyHasNeed_RelaxHasNeed_SocialHasNeed'
p481
aS'Analyticalhigh_Empathymedium'
p482
aS'Confidencelow_Physicalmedium'
p483
aS'Confidencelow_Creativelow_Physicalmedium'
p484
aS'Creativelow_Empathymedium'
p485
aS'Analyticalhigh_Creativelow_Empathymedium_Physicalmedium'
p486
aS'Creativelow_Physicalmedium'
p487
aS'Confidencelow_Empathymedium'
p488
aS'ExerciseHasNeed_HelpTheWorldHasNeed_MoneyHasNeed'
p489
aS'HelpTheWorldHasNeed_MoneyHasNeed_RelaxHasNeed'
p490
aS'HelpTheWorldHasNeed_MoneyHasNeed'
p491
aS'HelpTheWorldHasNeed_MoneyHasNeed_SocialHasNeed'
p492
aS'ExerciseHasNeed_MoneyHasNeed_SocialHasNeed'
p493
aS'ExerciseHasNeed_HelpTheWorldHasNeed_MoneyHasNeed_SocialHasNeed'
p494
aS'ExerciseHasNeed_HelpTheWorldHasNeed_SocialHasNeed'
p495
aS'ExerciseHasNeed_HelpTheWorldHasNeed_MoneyHasNeed_RelaxHasNeed'
p496
aS'Confidencelow_Creativelow_Empathymedium'
p497
aS'Empathymedium_Physicalmedium'
p498
aS'Analyticalhigh_Empathymedium_Physicalmedium'
p499
aS'Confidencemedium_Creativelow_Physicalmedium'
p500
aS'Analyticalhigh_Confidencemedium_Creativelow_Physicalmedium'
p501
aS'ExerciseHasNeed_HelpTheWorldHasNeed'
p502
aS'Analyticalhigh_Confidencelow_Creativelow'
p503
aS'Analyticalhigh_Confidencelow_Empathymedium'
p504
aS'Analyticalhigh_Empathymedium_Physicalhigh'
p505
aS'Confidencelow_Empathymedium_Physicalmedium'
p506
aS'Analyticalhigh_Confidencelow_Empathymedium_Physicalmedium'
p507
aS'Bin_Laurence_Matthias'
p508
aS'Analyticalhigh_Confidencelow_Creativelow_Empathymedium'
p509
aS'Analyticalhigh_Confidencelow_Creativelow_Empathymedium_Physicalhigh'
p510
aS'Jen_Kim_Matthias'
p511
aS'Creativelow_Empathymedium_Physicalmedium'
p512
aS'HelpTheWorldHasNeed_RelaxHasNeed'
p513
aS'ExerciseHasNeed_MoneyHasNeed_RelaxHasNeed'
p514
aS'Confidencemedium_Physicalmedium'
p515
aS'Analyticalhigh_Physicalmedium'
p516
aS'ExerciseHasNeed_RelaxHasNeed_SocialHasNeed'
p517
aS'ExerciseHasNeed_SocialHasNeed'
p518
aS'Analyticalhigh_Confidencelow_Physicalmedium'
p519
aS'Analyticalhigh_Confidencelow_Empathyhigh_Physicalmedium'
p520
aS'ExerciseHasNeed_HelpTheWorldHasNeed_MoneyHasNeed_RelaxHasNeed_SocialHasNeed'
p521
aS'Kim_Laura_Laurence'
p522
aS'Confidencelow_Creativelow_Empathymedium_Physicalmedium'
p523
aS'Analyticalhigh_Confidencelow_Creativelow_Empathymedium_Physicalmedium'
p524
aS'Analyticalhigh_Creativemedium_Empathymedium_Physicalmedium'
p525
aS'Analyticalhigh_Confidencelow_Creativemedium_Empathymedium_Physicalmedium'
p526
aS'Analyticalhigh_Confidencelow_Empathymedium_Physicalhigh'
p527
aS'Analyticalhigh_Confidencemedium_Physicalmedium'
p528
aS'SportPlayerTeacher'
p529
aS'Confidencemedium_Creativelow_Empathymedium'
p530
aS'Creativemedium_Physicalmedium'
p531
aS'Empathyhigh'
p532
aS'Creativelow_Empathyhigh_Physicalhigh'
p533
aS'Creativelow_Physicalhigh'
p534
aS'Confidencelow_Physicalhigh'
p535
aS'Bin_June_Tom'
p536
aS'Empathyhigh_Physicalmedium'
p537
aS'Creativelow_Empathyhigh_Physicalmedium'
p538
aS'ReneTad'
p539
aS'Analyticalhigh_Confidencemedium_Empathymedium_Physicalmedium'
p540
aS'NurseWaitStaff'
p541
aS'Confidencemedium_Empathymedium_Physicalmedium'
p542
aS'ReneTamara'
p543
aS'ArtistWaitStaff'
p544
aS'DoctorProgrammerSportPlayer'
p545
aS'Analyticalhigh_Creativelow_Physicalhigh'
p546
aS'Analyticalhigh_Creativelow_Empathymedium_Physicalhigh'
p547
aS'Bin_Carry_Jen'
p548
aS'Confidencemedium_Creativelow'
p549
aS'ArtistNurse'
p550
aS'Confidencelow_Creativelow_Empathyhigh_Physicalmedium'
p551
aS'Analyticalhigh_Confidencelow_Creativelow_Empathyhigh_Physicalmedium'
p552
aS'Creativelow_Empathyhigh'
p553
aS'Analyticalhigh_Creativelow_Empathyhigh'
p554
aS'Confidencelow_Creativelow_Empathyhigh'
p555
aS'Analyticalhigh_Empathyhigh'
p556
aS'Bin_Jen_Tom'
p557
aS'Analyticalmedium_Confidencelow_Empathymedium_Physicalmedium'
p558
aS'Analyticalmedium_Confidencelow_Creativelow_Empathymedium_Physicalmedium'
p559
aS'Analyticalhigh_Confidencemedium_Empathymedium'
p560
aS'Analyticalhigh_Confidencemedium_Creativelow_Empathymedium'
p561
aS'Analyticalhigh_Confidencelow_Empathyhigh'
p562
aS'Analyticalhigh_Confidencelow_Creativelow_Empathyhigh'
p563
aS'BoardGames_Boxing'
p564
aS'Carry_Jen_June'
p565
aS'Carry_Matthias_Siegfried'
p566
aS'Carry_Laura_Matthias'
p567
aS'Analyticalhigh_Empathyhigh_Physicalmedium'
p568
aS'Boxing_Volunteering'
p569
aS'Creativelow_Empathymedium_Physicalhigh'
p570
aS'Analyticalmedium_Confidencemedium_Empathymedium_Physicalmedium'
p571
aS'DoctorFireFighter'
p572
aS'ManuelRene'
p573
aS'Analyticalmedium_Physicalmedium'
p574
aS'Analyticalmedium_Creativelow_Physicalmedium'
p575
aS'Analyticalmedium_Creativelow_Empathymedium_Physicalmedium'
p576
aS'Confidencemedium_Empathyhigh_Physicalmedium'
p577
aS'BoardGames_Painting'
p578
aS'Football_Yoga'
p579
aS'Dancing_Football_Yoga'
p580
aS'Fencing_Football_Yoga'
p581
aS'BarHopping_Fencing_Yoga'
p582
aS'Bin_Carry_June'
p583
aS'Jen_Laura_Laurence'
p584
aS'June_Laura_Siegfried'
p585
aS'Confidencelow_Empathyhigh'
p586
aS'Confidencelow_Empathymedium_Physicalhigh'
p587
aS'Confidencemedium_Creativelow_Empathymedium_Physicalmedium'
p588
aS'Boxing_Fencing_Volunteering'
p589
aS'DoctorWaitStaff'
p590
aS'Bin_Siegfried_Tom'
p591
aS'Analyticalhigh_Creativelow_Empathyhigh_Physicalmedium'
p592
aS'Creativemedium_Empathymedium_Physicalmedium'
p593
aS'Confidencelow_Creativemedium_Empathymedium'
p594
aS'Bin_Carry_Kim'
p595
aS'BarHopping_Dating_Fencing'
p596
aS'Confidencelow_Creativemedium'
p597
aS'Analyticalhigh_Confidencelow_Creativemedium'
p598
aS'Confidencelow_Empathyhigh_Physicalmedium'
p599
aS'Confidencelow_Creativelow_Physicalhigh'
p600
aS'Analyticalmedium_Confidencelow_Physicalmedium'
p601
aS'Confidencelow_Empathyhigh_Physicalhigh'
p602
aS'Kim_Laura_Tom'
p603
aS'June_Laurence_Matthias'
p604
aS'ArtistFireFighter'
p605
aS'Confidencemedium_Creativelow_Empathyhigh'
p606
aS'Dancing_Fencing_Yoga'
p607
aS'Analyticalhigh_Confidencemedium_Creativelow_Empathyhigh'
p608
aS'Bin_Kim_Laurence'
p609
aS'FireFighterTeacher'
p610
aS'June_Siegfried_Tom'
p611
aS'Analyticalhigh_Confidencemedium_Creativelow'
p612
aS'Analyticalhigh_Creativemedium_Physicalmedium'
p613
aS'BoardGames_Football_Painting'
p614
aS'Acting_Volunteering'
p615
aS'Confidencelow_Creativemedium_Physicalmedium'
p616
aS'Confidencelow_Creativemedium_Empathyhigh_Physicalmedium'
p617
aS'Analyticalmedium_Confidencemedium_Creativelow_Physicalmedium'
p618
aS'Jen_Matthias_Tom'
p619
aS'Confidencelow_Creativelow_Empathymedium_Physicalhigh'
p620
aS'Bin_Kim_Tom'
p621
aS'Analyticalhigh_Confidencelow_Creativelow_Physicalhigh'
p622
aS'Analyticalhigh_Confidencelow_Creativelow_Empathyhigh_Physicalhigh'
p623
aS'Confidencelow_Creativemedium_Empathymedium_Physicalmedium'
p624
aS'BarHopping_Football_Yoga'
p625
aS'Analyticalhigh_Confidencemedium_Empathymedium_Physicalhigh'
p626
aS'Bin_June_Matthias'
p627
aS'Analyticalhigh_Confidencelow_Creativemedium_Empathymedium'
p628
aS'Analyticalhigh_Confidencelow_Creativemedium_Empathymedium_Physicalhigh'
p629
aS'Kim_Laura_Siegfried'
p630
aS'Bin_Carry_Tom'
p631
aS'Analyticalhigh_Confidencemedium_Creativelow_Empathymedium_Physicalmedium'
p632
aS'ProgrammerWaitStaff'
p633
aS'FatimaRene'
p634
aS'Jen_June_Laurence'
p635
aS'FireFighterNurse'
p636
aS'Acting_Boxing_Hockey'
p637
aS'TeacherWaitStaff'
p638
aS'ProfessorProgrammer'
p639
aS'FireFighterProgrammer'
p640
aS'Analyticalhigh_Confidencelow_Empathyhigh_Physicalhigh'
p641
aS'Carry_June_Laurence'
p642
aS'Carry_June_Kim'
p643
aS'Creativehigh_Physicalmedium'
p644
aS'Kim_Laurence_Tom'
p645
aS'Analyticalhigh_Confidencelow_Creativemedium_Physicalmedium'
p646
aS'Kim_Siegfried_Tom'
p647
aS'MoneyHasNeed_RelaxHasNeed_SexualityHasNeed'
p648
aS'MoneyHasNeed_SexualityHasNeed'
p649
aS'Empathylow_Physicalmedium'
p650
aS'Confidencehigh_Creativehigh'
p651
aS'HelpTheWorldHasNeed_MoneyHasNeed_SexualityHasNeed'
p652
aS'Analyticalmedium_Empathylow_Physicalmedium'
p653
aS'Analyticalmedium_Creativehigh_Empathylow_Physicalmedium'
p654
aS'SexualityHasNeed'
p655
aS'SexualityHasNeed_SocialHasNeed'
p656
aS'Analyticalmedium_Confidencehigh_Physicalmedium'
p657
aS'HelpTheWorldHasNeed_MoneyHasNeed_SexualityHasNeed_SocialHasNeed'
p658
aS'RelaxHasNeed_SexualityHasNeed'
p659
aS'Confidencehigh_Physicalmedium'
p660
aS'Confidencehigh_Empathylow_Physicalmedium'
p661
aS'RelaxHasNeed_SexualityHasNeed_SocialHasNeed'
p662
aS'HelpTheWorldHasNeed_SexualityHasNeed_SocialHasNeed'
p663
aS'Analyticalmedium_Confidencehigh_Creativehigh'
p664
aS'Analyticalmedium_Confidencehigh_Creativehigh_Physicalmedium'
p665
aS'Confidencehigh_Creativehigh_Physicalmedium'
p666
aS'Analyticalmedium_Confidencehigh_Empathylow_Physicalmedium'
p667
aS'Analyticalmedium_Confidencehigh_Creativehigh_Empathylow_Physicalmedium'
p668
aS'HelpTheWorldHasNeed_MoneyHasNeed_RelaxHasNeed_SexualityHasNeed'
p669
aS'HelpTheWorldHasNeed_SexualityHasNeed'
p670
aS'Analyticalmedium_Confidencehigh_Creativehigh_Empathylow'
p671
aS'Confidencehigh_Creativehigh_Empathylow'
p672
aS'MoneyHasNeed_SexualityHasNeed_SocialHasNeed'
p673
aS'HelpTheWorldHasNeed_RelaxHasNeed_SexualityHasNeed_SocialHasNeed'
p674
aS'Bin_Laura_Siegfried'
p675
aS'Confidencehigh_Empathymedium_Physicalmedium'
p676
aS'Confidencehigh_Creativehigh_Empathylow_Physicalmedium'
p677
aS'HelpTheWorldHasNeed_RelaxHasNeed_SexualityHasNeed'
p678
aS'Analyticalmedium_Empathymedium_Physicalmedium'
p679
aS'Creativehigh_Empathylow_Physicalmedium'
p680
aS'MoneyHasNeed_RelaxHasNeed_SexualityHasNeed_SocialHasNeed'
p681
aS'Confidencehigh_Creativehigh_Empathymedium'
p682
aS'Confidencehigh_Creativehigh_Empathymedium_Physicalmedium'
p683
aS'HelpTheWorldHasNeed_MoneyHasNeed_RelaxHasNeed_SexualityHasNeed_SocialHasNeed'
p684
aS'Analyticalmedium_Creativehigh_Physicalmedium'
p685
aS'Analyticalmedium_Creativehigh_Empathylow'
p686
aS'SofiaTamara'
p687
aS'Laura_Siegfried_Tom'
p688
aS'Analyticalmedium_Confidencehigh_Creativehigh_Empathymedium_Physicalmedium'
p689
aS'Creativehigh_Empathymedium_Physicalmedium'
p690
aS'Analyticallow_Physicalmedium'
p691
aS'Analyticallow_Creativehigh_Physicalmedium'
p692
aS'Analyticalmedium_Creativehigh_Empathymedium_Physicalmedium'
p693
aS'Dancing_Football'
p694
aS'Analyticalmedium_Confidencehigh_Empathymedium_Physicalmedium'
p695
aS'Kim_Laura_Matthias'
p696
aS'Kim_Matthias_Siegfried'
p697
aS'FatimaMohamed'
p698
aS'Carry_Laurence_Siegfried'
p699
aS'Analyticallow_Confidencehigh_Creativehigh_Physicalmedium'
p700
aS'BoardGames_Dancing_Dating'
p701
aS'Laura_Laurence_Siegfried'
p702
aS'June_Laurence_Siegfried'
p703
aS'Bin_Laurence_Siegfried'
p704
aS'Carry_Jen_Tom'
p705
aS'Analyticalmedium_Creativehigh_Empathymedium'
p706
aS'Carry_Jen_Laura'
p707
aS'Dating_Fencing_Painting'
p708
aS'Analyticalmedium_Confidencehigh_Creativehigh_Empathymedium'
p709
aS'Laurence_Siegfried_Tom'
p710
aS'Jen_June_Matthias'
p711
aS'MohamedSofiaTamara'
p712
aS'Confidencehigh_Creativehigh_Physicalhigh'
p713
aS'Analyticallow_Confidencehigh'
p714
aS'Analyticallow_Confidencehigh_Empathylow'
p715
aS'MohamedReneSantiago'
p716
aS'Analyticallow_Empathylow_Physicalmedium'
p717
aS'Analyticallow_Creativehigh_Empathylow_Physicalmedium'
p718
aS'FireFighterProfessor'
p719
aS'Analyticallow_Physicalhigh'
p720
aS'Analyticallow_Confidencehigh_Physicalhigh'
p721
aS'FireFighterSportPlayerTeacher'
p722
aS'BarHopping_Dancing_Dating'
p723
aS'Bin_Carry_Siegfried'
p724
aS'Laurence_Matthias_Tom'
p725
aS'Bin_Jen_Laurence'
p726
aS'ReneSofia'
p727
aS'Matthias_Siegfried_Tom'
p728
aS'Jen_June_Laura'
p729
aS'Bin_Carry_Matthias'
p730
aS'June_Matthias_Tom'
p731
aS'Acting_Football_Hockey'
p732
aS'Jen_Kim_Tom'
p733
aS'Bin_Carry_Laurence'
p734
aS'Laura_Matthias_Tom'
p735
aS'FireFighterProfessorSportPlayer'
p736
aS'Analyticalmedium_Creativehigh_Empathylow_Physicalhigh'
p737
aS'ExerciseHasNeed_HelpTheWorldHasNeed_MoneyHasNeed_SexualityHasNeed'
p738
aS'ExerciseHasNeed_MoneyHasNeed_SexualityHasNeed'
p739
aS'Creativehigh_Physicallow'
p740
aS'Analyticalhigh_Creativehigh_Physicallow'
p741
aS'Physicallow'
p742
aS'Analyticalhigh_Physicallow'
p743
aS'ExerciseHasNeed_SexualityHasNeed'
p744
aS'ExerciseHasNeed_HelpTheWorldHasNeed_SexualityHasNeed'
p745
aS'Analyticalhigh_Confidencehigh'
p746
aS'Analyticalhigh_Confidencehigh_Physicallow'
p747
aS'Analyticalhigh_Creativehigh'
p748
aS'Analyticalhigh_Creativehigh_Empathylow'
p749
aS'Analyticalhigh_Confidencehigh_Creativehigh'
p750
aS'Analyticalhigh_Confidencehigh_Creativehigh_Physicallow'
p751
aS'Confidencehigh_Physicallow'
p752
aS'Analyticalhigh_Confidencehigh_Empathylow'
p753
aS'Analyticalhigh_Confidencehigh_Creativehigh_Empathylow'
p754
aS'Analyticalhigh_Creativehigh_Empathymedium'
p755
aS'Creativehigh_Empathylow_Physicallow'
p756
aS'Confidencehigh_Creativehigh_Empathylow_Physicallow'
p757
aS'Empathylow_Physicallow'
p758
aS'Analyticalhigh_Empathylow_Physicallow'
p759
aS'Confidencehigh_Empathylow_Physicallow'
p760
aS'Analyticalhigh_Confidencehigh_Empathylow_Physicallow'
p761
aS'Carry_June_Siegfried'
p762
aS'Confidencehigh_Creativehigh_Physicallow'
p763
aS'Analyticalhigh_Confidencehigh_Creativehigh_Empathylow_Physicallow'
p764
aS'Analyticalhigh_Creativehigh_Empathylow_Physicallow'
p765
aS'Acting_BarHopping_Dating'
p766
aS'ProfessorWaitStaff'
p767
aS'FireFighterProfessorWaitStaff'
p768
aS'FatimaReneTamara'
p769
aS'Analyticalmedium_Empathylow_Physicallow'
p770
aS'Analyticalhigh_Confidencehigh_Physicalmedium'
p771
aS'Analyticalhigh_Confidencehigh_Empathylow_Physicalmedium'
p772
aS'NurseProfessor'
p773
aS'Boxing_Volunteering_Yoga'
p774
aS'Empathymedium_Physicallow'
p775
aS'Creativehigh_Empathymedium_Physicallow'
p776
aS'Analyticalhigh_Creativehigh_Empathymedium_Physicallow'
p777
aS'Carry_June_Matthias'
p778
aS'Acting_Dating_Painting'
p779
aS'FireFighterNurseProgrammer'
p780
aS'Acting_Boxing_Yoga'
p781
aS'Acting_Boxing_Football'
p782
aS'Analyticalhigh_Confidencehigh_Physicalhigh'
p783
aS'Confidencehigh_Empathymedium_Physicallow'
p784
aS'FireFighterNurseSportPlayer'
p785
aS'SantiagoSofiaTamara'
p786
aS'Analyticalhigh_Confidencehigh_Creativehigh_Physicalmedium'
p787
aS'Analyticalhigh_Confidencehigh_Creativehigh_Empathylow_Physicalmedium'
p788
aS'Analyticalhigh_Empathymedium_Physicallow'
p789
aS'Analyticalmedium_Physicallow'
p790
aS'Analyticalmedium_Confidencehigh_Physicallow'
p791
aS'Bin_Kim_Siegfried'
p792
aS'ReneSantiago'
p793
aS'Jen_Siegfried_Tom'
p794
aS'Analyticalhigh_Creativehigh_Empathylow_Physicalmedium'
p795
aS'CreativityHasNeed_HelpTheWorldHasNeed_MoneyHasNeed'
p796
aS'CreativityHasNeed_HelpTheWorldHasNeed'
p797
aS'CreativityHasNeed_HelpTheWorldHasNeed_RelaxHasNeed'
p798
aS'CreativityHasNeed_HelpTheWorldHasNeed_RelaxHasNeed_SocialHasNeed'
p799
aS'CreativityHasNeed_HelpTheWorldHasNeed_MoneyHasNeed_RelaxHasNeed'
p800
aS'CreativityHasNeed_HelpTheWorldHasNeed_MoneyHasNeed_RelaxHasNeed_SocialHasNeed'
p801
aS'Creativehigh_Empathyhigh'
p802
aS'Analyticalhigh_Creativemedium_Empathyhigh_Physicalmedium'
p803
aS'CreativityHasNeed_HelpTheWorldHasNeed_MoneyHasNeed_SocialHasNeed'
p804
aS'Analyticalhigh_Confidencelow_Creativemedium_Empathyhigh_Physicalmedium'
p805
aS'Creativemedium_Empathyhigh_Physicalmedium'
p806
aS'Confidencelow_Creativemedium_Empathyhigh'
p807
aS'Confidencelow_Creativemedium_Empathyhigh_Physicalhigh'
p808
aS'Analyticalmedium_Confidencelow_Physicalhigh'
p809
aS'Creativemedium_Empathyhigh'
p810
aS'Analyticalhigh_Creativemedium_Empathyhigh'
p811
aS'Analyticalhigh_Confidencelow_Creativemedium_Empathyhigh'
p812
aS'CreativityHasNeed_HelpTheWorldHasNeed_SocialHasNeed'
p813
aS'Creativemedium_Empathyhigh_Physicalhigh'
p814
aS'Analyticalhigh_Creativemedium_Empathyhigh_Physicalhigh'
p815
aS'Analyticalhigh_Confidencemedium_Empathyhigh_Physicalmedium'
p816
aS'Analyticalhigh_Confidencelow_Creativehigh_Empathyhigh_Physicalmedium'
p817
aS'Analyticalhigh_Confidencelow_Creativehigh_Physicalmedium'
p818
aS'Analyticalhigh_Creativehigh_Physicalmedium'
p819
aS'Confidencelow_Creativehigh_Empathyhigh'
p820
aS'Confidencelow_Creativehigh'
p821
aS'Analyticalhigh_Confidencelow_Creativemedium_Empathyhigh_Physicalhigh'
p822
aS'Analyticalhigh_Creativehigh_Empathyhigh'
p823
aS'Confidencemedium_Creativemedium_Empathyhigh'
p824
aS'Analyticalhigh_Confidencelow_Creativemedium_Physicalhigh'
p825
aS'Confidencelow_Creativehigh_Empathymedium_Physicalmedium'
p826
aS'Analyticalhigh_Confidencelow_Creativehigh_Empathyhigh'
p827
aS'Analyticalhigh_Confidencelow_Creativehigh'
p828
aS'Creativehigh_Empathyhigh_Physicalmedium'
p829
aS'Analyticalmedium_Confidencelow_Creativemedium_Empathyhigh'
p830
aS'Analyticalhigh_Creativehigh_Empathyhigh_Physicalmedium'
p831
aS'Analyticalmedium_Empathyhigh_Physicalmedium'
p832
aS'Analyticalmedium_Confidencelow'
p833
aS'Confidencelow_Creativehigh_Physicalmedium'
p834
aS'Analyticalmedium_Creativemedium_Physicalmedium'
p835
aS'Boxing_Dancing_Football'
p836
aS'BarHopping_BoardGames_Fencing'
p837
aS'Acting_BoardGames_Fencing'
p838
aS'Confidencelow_Creativehigh_Empathyhigh_Physicalmedium'
p839
aS'Bin_June_Kim'
p840
aS'Analyticalmedium_Creativemedium_Empathymedium_Physicalmedium'
p841
aS'Analyticalmedium_Confidencelow_Empathyhigh'
p842
aS'Laurence_Matthias_Siegfried'
p843
aS'Analyticallow_Empathyhigh'
p844
aS'MentalExerciseHasNeed_MoneyHasNeed_SexualityHasNeed'
p845
aS'Confidencehigh_Empathyhigh'
p846
aS'CreativityHasNeed_ExerciseHasNeed'
p847
aS'CreativityHasNeed_ExerciseHasNeed_SexualityHasNeed'
p848
aS'Confidencehigh_Creativelow'
p849
aS'CreativityHasNeed_SexualityHasNeed'
p850
aS'CreativityHasNeed_MentalExerciseHasNeed_SexualityHasNeed'
p851
aS'CreativityHasNeed_MentalExerciseHasNeed_MoneyHasNeed_SexualityHasNeed'
p852
aS'Analyticallow_Creativelow'
p853
aS'Analyticallow_Creativelow_Empathyhigh'
p854
aS'Confidencehigh_Creativelow_Empathymedium'
p855
aS'Confidencehigh_Creativelow_Physicalhigh'
p856
aS'Analyticallow_Creativelow_Physicalhigh'
p857
aS'Confidencehigh_Creativelow_Empathyhigh'
p858
aS'Confidencehigh_Creativelow_Empathyhigh_Physicalhigh'
p859
aS'Analyticallow_Empathyhigh_Physicalhigh'
p860
aS'Analyticallow_Confidencehigh_Creativelow'
p861
aS'Analyticallow_Confidencehigh_Creativelow_Physicalhigh'
p862
aS'Analyticallow_Empathymedium'
p863
aS'Analyticallow_Creativelow_Empathymedium'
p864
aS'Analyticallow_Creativelow_Empathymedium_Physicalhigh'
p865
aS'ExerciseHasNeed_MentalExerciseHasNeed'
p866
aS'CreativityHasNeed_ExerciseHasNeed_MentalExerciseHasNeed'
p867
aS'ExerciseHasNeed_MentalExerciseHasNeed_MoneyHasNeed'
p868
aS'CreativityHasNeed_ExerciseHasNeed_MentalExerciseHasNeed_SexualityHasNeed'
p869
aS'CreativityHasNeed_ExerciseHasNeed_MentalExerciseHasNeed_MoneyHasNeed_SexualityHasNeed'
p870
aS'Analyticallow_Confidencehigh_Empathyhigh'
p871
aS'Analyticallow_Creativelow_Empathyhigh_Physicalhigh'
p872
aS'MentalExerciseHasNeed_SexualityHasNeed'
p873
aS'ExerciseHasNeed_MentalExerciseHasNeed_MoneyHasNeed_SexualityHasNeed'
p874
aS'CreativityHasNeed_MoneyHasNeed_SexualityHasNeed'
p875
aS'Confidencehigh_Empathyhigh_Physicalhigh'
p876
aS'Analyticallow_Confidencehigh_Creativelow_Empathyhigh'
p877
aS'CreativityHasNeed_ExerciseHasNeed_MoneyHasNeed'
p878
aS'CreativityHasNeed_ExerciseHasNeed_MoneyHasNeed_SexualityHasNeed'
p879
aS'ExerciseHasNeed_MentalExerciseHasNeed_SexualityHasNeed'
p880
aS'Confidencehigh_Creativelow_Empathymedium_Physicalhigh'
p881
aS'Bin_Kim_Matthias'
p882
aS'CreativityHasNeed_ExerciseHasNeed_MentalExerciseHasNeed_MoneyHasNeed'
p883
aS'Analyticalmedium_Creativelow'
p884
aS'Dating_Football_Painting'
p885
aS'Analyticallow_Confidencehigh_Creativelow_Empathyhigh_Physicalhigh'
p886
aS'Analyticalmedium_Confidencehigh_Creativelow_Empathyhigh'
p887
aS'Analyticalmedium_Confidencehigh_Creativelow_Empathyhigh_Physicalhigh'
p888
aS'Analyticallow_Confidencehigh_Empathyhigh_Physicalhigh'
p889
aS'Analyticallow_Confidencehigh_Creativelow_Empathymedium'
p890
aS'Analyticalmedium_Confidencehigh_Creativelow'
p891
aS'Analyticalmedium_Empathyhigh'
p892
aS'Analyticallow_Confidencehigh_Empathymedium_Physicalhigh'
p893
aS'Acting_Fencing_Yoga'
p894
aS'Analyticallow_Confidencehigh_Creativelow_Empathymedium_Physicalhigh'
p895
aS'Analyticalmedium_Confidencehigh_Empathyhigh'
p896
aS'Analyticalmedium_Creativelow_Empathyhigh'
p897
aS'Analyticalmedium_Creativelow_Physicalhigh'
p898
aS'Dancing_Dating_Yoga'
p899
aS'Analyticalmedium_Empathyhigh_Physicalhigh'
p900
aS'Analyticalmedium_Creativelow_Empathyhigh_Physicalhigh'
p901
aS'Jen_Kim_Siegfried'
p902
aS'DoctorProfessorSportPlayer'
p903
aS'June_Laura_Laurence'
p904
aS'Analyticallow_Confidencehigh_Creativemedium_Empathymedium_Physicalhigh'
p905
aS'Analyticallow_Confidencehigh_Empathymedium'
p906
aS'Dating_Hockey_Volunteering'
p907
aS'Dating_Hockey_Painting'
p908
aS'DoctorNurseProfessor'
p909
aS'Analyticalmedium_Creativelow_Empathymedium'
p910
aS'Analyticalmedium_Creativelow_Empathymedium_Physicalhigh'
p911
aS'Analyticalmedium_Confidencehigh_Empathyhigh_Physicalhigh'
p912
aS'Analyticallow_Empathymedium_Physicalhigh'
p913
a.